target datalayout = "e-m:e-p270:32:32-p271:32:32-p272:64:64-i64:64-i128:128-f80:128-n8:16:32:64-S128"
target triple = "x86_64-pc-linux-gnu"

%struct._GtkTreeIter = type { i32, ptr, ptr, ptr }
%struct.display_data = type { i64, i32, ptr, i8, i32, ptr, ptr, ptr, ptr, ptr, ptr, ptr, ptr }
%struct.popup_info = type { ptr, ptr, i32, i32, ptr, ptr, ptr, %struct._GtkTreeIter, ptr, ptr, i32, i8, ptr, ptr, i32, ptr, ptr, i32, i32 }
%struct._GdkEventButton = type { i32, ptr, i8, i32, double, double, ptr, i32, i32, ptr, double, double }

; Function Attrs: nounwind uwtable
define dso_local void @redo_popup(ptr noundef %0, ptr noundef %1, ptr noundef %2) #0 {
  %4 = alloca ptr, align 8
  %5 = alloca ptr, align 8
  %6 = alloca ptr, align 8
  %7 = alloca ptr, align 8
  store ptr %0, ptr %4, align 8
  store ptr %1, ptr %5, align 8
  store ptr %2, ptr %6, align 8
  %8 = load ptr, ptr %5, align 8
  %9 = icmp ne ptr %8, null
  br i1 %9, label %10, label %35

10:                                               ; preds = %3
  %11 = load ptr, ptr %5, align 8
  %12 = getelementptr inbounds nuw %struct._GdkEventButton, ptr %11, i32 0, i32 8
  %13 = load i32, ptr %12, align 4
  %14 = icmp eq i32 %13, 3
  br i1 %14, label %15, label %35

15:                                               ; preds = %10
  call void @llvm.lifetime.start.p0(i64 8, ptr %7) #11
  %16 = call ptr @gtk_menu_new()
  %17 = call i64 @gtk_menu_get_type() #12
  %18 = call ptr @g_type_check_instance_cast(ptr noundef %16, i64 noundef %17)
  store ptr %18, ptr %7, align 8
  %19 = load ptr, ptr %6, align 8
  %20 = getelementptr inbounds nuw %struct.popup_info, ptr %19, i32 0, i32 0
  %21 = load ptr, ptr %20, align 8
  %22 = getelementptr inbounds nuw %struct.display_data, ptr %21, i32 0, i32 10
  %23 = load ptr, ptr %22, align 8
  %24 = load ptr, ptr %6, align 8
  %25 = load ptr, ptr %7, align 8
  call void %23(ptr noundef %24, ptr noundef %25, ptr noundef null, i32 noundef 4)
  %26 = load ptr, ptr %7, align 8
  %27 = call i64 @gtk_widget_get_type() #12
  %28 = call ptr @g_type_check_instance_cast(ptr noundef %26, i64 noundef %27)
  call void @gtk_widget_show_all(ptr noundef %28)
  %29 = load ptr, ptr %7, align 8
  %30 = load ptr, ptr %5, align 8
  %31 = getelementptr inbounds nuw %struct._GdkEventButton, ptr %30, i32 0, i32 8
  %32 = load i32, ptr %31, align 4
  %33 = load ptr, ptr %5, align 8
  %34 = call i32 @gdk_event_get_time(ptr noundef %33)
  call void @gtk_menu_popup(ptr noundef %29, ptr noundef null, ptr noundef null, ptr noundef null, ptr noundef null, i32 noundef %32, i32 noundef %34)
  call void @llvm.lifetime.end.p0(i64 8, ptr %7) #11
  br label %35

35:                                               ; preds = %15, %10, %3
  ret void
}