; Function Attrs: nounwind uwtable
define dso_local void @redo_popup(ptr readnone captures(none) %0, ptr noundef %1, ptr noundef %2) #2 {
  %.not = icmp eq ptr %1, null
  br i1 %.not, label %19, label %4

4:                                                ; preds = %3
  %5 = getelementptr inbounds nuw i8, ptr %1, i64 52
  %6 = load i32, ptr %5, align 4
  %7 = icmp eq i32 %6, 3
  br i1 %7, label %8, label %19

8:                                                ; preds = %4
  %9 = tail call ptr @gtk_menu_new() #16
  %10 = tail call i64 @gtk_menu_get_type() #17
  %11 = tail call ptr @g_type_check_instance_cast(ptr noundef %9, i64 noundef %10) #16
  %12 = load ptr, ptr %2, align 8
  %13 = getelementptr inbounds nuw i8, ptr %12, i64 72
  %14 = load ptr, ptr %13, align 8
  tail call void %14(ptr noundef nonnull %2, ptr noundef %11, ptr noundef null, i32 noundef 4) #16
  %15 = tail call i64 @gtk_widget_get_type() #17
  %16 = tail call ptr @g_type_check_instance_cast(ptr noundef %11, i64 noundef %15) #16
  tail call void @gtk_widget_show_all(ptr noundef %16) #16
  %17 = load i32, ptr %5, align 4
  %18 = tail call i32 @gdk_event_get_time(ptr noundef nonnull %1) #16
  tail call void @gtk_menu_popup(ptr noundef %11, ptr noundef null, ptr noundef null, ptr noundef null, ptr noundef null, i32 noundef %17, i32 noundef %18) #16
  br label %19

19:                                               ; preds = %8, %4, %3
  ret void
}